; Function Attrs: mustprogress uwtable
define hidden void @_ZN4cvc58internal7IntegerC2ERKNSt7__cxx1112basic_stringIcSt11char_traitsIcESaIcEEEj(ptr noundef nonnull align 8 dereferenceable(16) %0, ptr noundef nonnull readonly align 8 captures(none) dereferenceable(32) %1, i32 noundef %2) unnamed_addr #0 align 2 personality ptr @__gxx_personality_v0 {
  %4 = load ptr, ptr %1, align 8, !tbaa !3
  %5 = tail call i32 @__gmpz_init_set_str(ptr noundef nonnull align 8 dereferenceable(16) %0, ptr noundef %4, i32 noundef %2)
  %.not.i = icmp eq i32 %5, 0
  br i1 %.not.i, label %_ZN10__gmp_exprIA1_12__mpz_structS1_EC2ERKNSt7__cxx1112basic_stringIcSt11char_traitsIcESaIcEEEi.exit, label %6

6:                                                ; preds = %3
  tail call void @__gmpz_clear(ptr noundef nonnull align 8 dereferenceable(16) %0)
  %7 = tail call ptr @__cxa_allocate_exception(i64 16) #16
  invoke void @_ZNSt16invalid_argumentC1EPKc(ptr noundef nonnull align 8 dereferenceable(16) %7, ptr noundef nonnull @.str)
          to label %8 unwind label %9

8:                                                ; preds = %6
  tail call void @__cxa_throw(ptr nonnull %7, ptr nonnull @_ZTISt16invalid_argument, ptr nonnull @_ZNSt16invalid_argumentD1Ev) #17
  unreachable

9:                                                ; preds = %6
  %10 = landingpad { ptr, i32 }
          cleanup
  tail call void @__cxa_free_exception(ptr nonnull %7) #16
  resume { ptr, i32 } %10

_ZN10__gmp_exprIA1_12__mpz_structS1_EC2ERKNSt7__cxx1112basic_stringIcSt11char_traitsIcESaIcEEEi.exit: ; preds = %3
  ret void
}